; Function Attrs: nounwind uwtable
define ptr @l_List_filterMapTR_go___at___private_Lean_Meta_Tactic_Backtrack_0__Lean_Meta_Tactic_Backtrack_Backtrack_processIndependentGoals___spec__6(ptr noundef %0, ptr noundef %1) local_unnamed_addr #0 {
  br label %lean_dec.exit27.outer

lean_dec.exit27.outer:                            ; preds = %lean_dec.exit, %2
  %.021.ph = phi ptr [ %87, %lean_dec.exit ], [ %1, %2 ]
  %.0.ph = phi ptr [ %54, %lean_dec.exit ], [ %0, %2 ]
  br label %lean_dec.exit27

lean_dec.exit27:                                  ; preds = %lean_dec.exit27.backedge, %lean_dec.exit27.outer
  %.0 = phi ptr [ %.0.ph, %lean_dec.exit27.outer ], [ %36, %lean_dec.exit27.backedge ]
  %3 = ptrtoint ptr %.0 to i64
  %4 = and i64 %3, 1
  %.not.i35 = icmp eq i64 %4, 0
  br i1 %.not.i35, label %8, label %5

5:                                                ; preds = %lean_dec.exit27
  %6 = lshr i64 %3, 1
  %7 = trunc i64 %6 to i32
  br label %lean_obj_tag.exit

8:                                                ; preds = %lean_dec.exit27
  %9 = getelementptr i8, ptr %.0, i64 4
  %.val.i = load i32, ptr %9, align 4
  %10 = lshr i32 %.val.i, 24
  br label %lean_obj_tag.exit

lean_obj_tag.exit:                                ; preds = %5, %8
  %.0.i = phi i32 [ %7, %5 ], [ %10, %8 ]
  %11 = icmp eq i32 %.0.i, 0
  br i1 %11, label %12, label %14

12:                                               ; preds = %lean_obj_tag.exit
  %13 = tail call ptr @lean_array_to_list(ptr noundef %.021.ph) #4
  ret ptr %13

14:                                               ; preds = %lean_obj_tag.exit
  %15 = getelementptr inbounds nuw i8, ptr %.0, i64 8
  %16 = load ptr, ptr %15, align 8, !tbaa !10
  %17 = ptrtoint ptr %16 to i64
  %18 = and i64 %17, 1
  %.not = icmp eq i64 %18, 0
  br i1 %.not, label %19, label %lean_obj_tag.exit41

19:                                               ; preds = %14
  %.val.i36 = load i32, ptr %16, align 4, !tbaa !4
  %20 = icmp sgt i32 %.val.i36, 0
  br i1 %20, label %21, label %23, !prof !9

21:                                               ; preds = %19
  %22 = add nuw i32 %.val.i36, 1
  store i32 %22, ptr %16, align 4, !tbaa !4
  br label %lean_obj_tag.exit41.thread

23:                                               ; preds = %19
  %.not.i37 = icmp eq i32 %.val.i36, 0
  br i1 %.not.i37, label %lean_obj_tag.exit41.thread, label %24

24:                                               ; preds = %23
  tail call void @lean_inc_ref_cold(ptr noundef nonnull %16) #4
  br label %lean_obj_tag.exit41.thread

lean_obj_tag.exit41:                              ; preds = %14
  %25 = and i64 %17, 8589934590
  %26 = icmp eq i64 %25, 0
  br i1 %26, label %lean_dec.exit28, label %52

lean_obj_tag.exit41.thread:                       ; preds = %21, %23, %24
  %27 = getelementptr i8, ptr %16, i64 4
  %.val.i40 = load i32, ptr %27, align 4
  %28 = icmp ult i32 %.val.i40, 16777216
  br i1 %28, label %.thread, label %52

.thread:                                          ; preds = %lean_obj_tag.exit41.thread
  %29 = load i32, ptr %16, align 4, !tbaa !4
  %30 = icmp sgt i32 %29, 1
  br i1 %30, label %31, label %33, !prof !9

31:                                               ; preds = %.thread
  %32 = add nsw i32 %29, -1
  store i32 %32, ptr %16, align 4, !tbaa !4
  br label %lean_dec.exit28

33:                                               ; preds = %.thread
  %.not.i = icmp eq i32 %29, 0
  br i1 %.not.i, label %lean_dec.exit28, label %34

34:                                               ; preds = %33
  tail call void @lean_dec_ref_cold(ptr noundef nonnull %16) #4
  br label %lean_dec.exit28

lean_dec.exit28:                                  ; preds = %lean_obj_tag.exit41, %34, %33, %31
  %35 = getelementptr inbounds nuw i8, ptr %.0, i64 16
  %36 = load ptr, ptr %35, align 8, !tbaa !10
  %37 = ptrtoint ptr %36 to i64
  %38 = and i64 %37, 1
  %.not56 = icmp eq i64 %38, 0
  br i1 %.not56, label %39, label %lean_inc.exit24

39:                                               ; preds = %lean_dec.exit28
  %.val.i42 = load i32, ptr %36, align 4, !tbaa !4
  %40 = icmp sgt i32 %.val.i42, 0
  br i1 %40, label %41, label %43, !prof !9

41:                                               ; preds = %39
  %42 = add nuw i32 %.val.i42, 1
  store i32 %42, ptr %36, align 4, !tbaa !4
  br label %lean_inc.exit24

43:                                               ; preds = %39
  %.not.i43 = icmp eq i32 %.val.i42, 0
  br i1 %.not.i43, label %lean_inc.exit24, label %44

44:                                               ; preds = %43
  tail call void @lean_inc_ref_cold(ptr noundef nonnull %36) #4
  br label %lean_inc.exit24

lean_inc.exit24:                                  ; preds = %44, %43, %41, %lean_dec.exit28
  br i1 %.not.i35, label %45, label %lean_dec.exit27.backedge

lean_dec.exit27.backedge:                         ; preds = %lean_inc.exit24, %48, %50, %51
  br label %lean_dec.exit27

45:                                               ; preds = %lean_inc.exit24
  %46 = load i32, ptr %.0, align 4, !tbaa !4
  %47 = icmp sgt i32 %46, 1
  br i1 %47, label %48, label %50, !prof !9

48:                                               ; preds = %45
  %49 = add nsw i32 %46, -1
  store i32 %49, ptr %.0, align 4, !tbaa !4
  br label %lean_dec.exit27.backedge

50:                                               ; preds = %45
  %.not.i29 = icmp eq i32 %46, 0
  br i1 %.not.i29, label %lean_dec.exit27.backedge, label %51

51:                                               ; preds = %50
  tail call void @lean_dec_ref_cold(ptr noundef nonnull %.0) #4
  br label %lean_dec.exit27.backedge

52:                                               ; preds = %lean_obj_tag.exit41.thread, %lean_obj_tag.exit41
  %53 = getelementptr inbounds nuw i8, ptr %.0, i64 16
  %54 = load ptr, ptr %53, align 8, !tbaa !10
  %55 = ptrtoint ptr %54 to i64
  %56 = and i64 %55, 1
  %.not53 = icmp eq i64 %56, 0
  br i1 %.not53, label %57, label %lean_inc.exit23

57:                                               ; preds = %52
  %.val.i45 = load i32, ptr %54, align 4, !tbaa !4
  %58 = icmp sgt i32 %.val.i45, 0
  br i1 %58, label %59, label %61, !prof !9

59:                                               ; preds = %57
  %60 = add nuw i32 %.val.i45, 1
  store i32 %60, ptr %54, align 4, !tbaa !4
  br label %lean_inc.exit23

61:                                               ; preds = %57
  %.not.i46 = icmp eq i32 %.val.i45, 0
  br i1 %.not.i46, label %lean_inc.exit23, label %62

62:                                               ; preds = %61
  tail call void @lean_inc_ref_cold(ptr noundef nonnull %54) #4
  br label %lean_inc.exit23

lean_inc.exit23:                                  ; preds = %62, %61, %59, %52
  br i1 %.not.i35, label %63, label %lean_dec.exit26

63:                                               ; preds = %lean_inc.exit23
  %64 = load i32, ptr %.0, align 4, !tbaa !4
  %65 = icmp sgt i32 %64, 1
  br i1 %65, label %66, label %68, !prof !9

66:                                               ; preds = %63
  %67 = add nsw i32 %64, -1
  store i32 %67, ptr %.0, align 4, !tbaa !4
  br label %lean_dec.exit26

68:                                               ; preds = %63
  %.not.i31 = icmp eq i32 %64, 0
  br i1 %.not.i31, label %lean_dec.exit26, label %69

69:                                               ; preds = %68
  tail call void @lean_dec_ref_cold(ptr noundef nonnull %.0) #4
  br label %lean_dec.exit26

lean_dec.exit26:                                  ; preds = %69, %68, %66, %lean_inc.exit23
  %70 = getelementptr inbounds nuw i8, ptr %16, i64 8
  %71 = load ptr, ptr %70, align 8, !tbaa !10
  %72 = ptrtoint ptr %71 to i64
  %73 = and i64 %72, 1
  %.not55 = icmp eq i64 %73, 0
  br i1 %.not55, label %74, label %lean_inc.exit

74:                                               ; preds = %lean_dec.exit26
  %.val.i48 = load i32, ptr %71, align 4, !tbaa !4
  %75 = icmp sgt i32 %.val.i48, 0
  br i1 %75, label %76, label %78, !prof !9

76:                                               ; preds = %74
  %77 = add nuw i32 %.val.i48, 1
  store i32 %77, ptr %71, align 4, !tbaa !4
  br label %lean_inc.exit

78:                                               ; preds = %74
  %.not.i49 = icmp eq i32 %.val.i48, 0
  br i1 %.not.i49, label %lean_inc.exit, label %79

79:                                               ; preds = %78
  tail call void @lean_inc_ref_cold(ptr noundef nonnull %71) #4
  br label %lean_inc.exit

lean_inc.exit:                                    ; preds = %79, %78, %76, %lean_dec.exit26
  br i1 %.not, label %80, label %lean_dec.exit

80:                                               ; preds = %lean_inc.exit
  %81 = load i32, ptr %16, align 4, !tbaa !4
  %82 = icmp sgt i32 %81, 1
  br i1 %82, label %83, label %85, !prof !9

83:                                               ; preds = %80
  %84 = add nsw i32 %81, -1
  store i32 %84, ptr %16, align 4, !tbaa !4
  br label %lean_dec.exit

85:                                               ; preds = %80
  %.not.i33 = icmp eq i32 %81, 0
  br i1 %.not.i33, label %lean_dec.exit, label %86

86:                                               ; preds = %85
  tail call void @lean_dec_ref_cold(ptr noundef nonnull %16) #4
  br label %lean_dec.exit

lean_dec.exit:                                    ; preds = %86, %85, %83, %lean_inc.exit
  %87 = tail call ptr @lean_array_push(ptr noundef %.021.ph, ptr noundef %71) #4
  br label %lean_dec.exit27.outer
}